; Function Attrs: nounwind uwtable
define hidden void @putModuleEntry(ptr noundef %0, ptr noundef %1, ptr noundef %2) local_unnamed_addr #0 {
  %4 = icmp eq ptr %1, null
  %5 = icmp eq ptr %2, null
  %or.cond = or i1 %4, %5
  br i1 %or.cond, label %12, label %6

6:                                                ; preds = %3
  %7 = load ptr, ptr %0, align 8
  %8 = getelementptr inbounds i8, ptr %7, i64 880
  %9 = load ptr, ptr %8, align 8
  %10 = load ptr, ptr @pNativeDataID, align 8
  %11 = ptrtoint ptr %2 to i64
  tail call void %9(ptr noundef nonnull %0, ptr noundef nonnull %1, ptr noundef %10, i64 noundef %11) #15
  br label %12

12:                                               ; preds = %3, %6
  ret void
}